target datalayout = "e-m:e-p270:32:32-p271:32:32-p272:64:64-i64:64-i128:128-f80:128-n8:16:32:64-S128"
target triple = "x86_64-pc-linux-gnu"

%struct.strbuf = type { i64, i64, ptr }
%struct.strvec = type { ptr, i64, i64 }
%struct.git_zstream = type { %struct.z_stream_s, i64, i64, i64, i64, ptr, ptr }
%struct.z_stream_s = type { ptr, i32, i64, ptr, i32, i64, ptr, ptr, ptr, ptr, ptr, i32, i64, i64 }
%struct.archiver = type { ptr, ptr, i32, ptr }
%struct.archiver_args = type { ptr, ptr, ptr, ptr, i64, ptr, ptr, ptr, ptr, i64, %struct.pathspec, i8, i32, %struct.string_list, ptr }
%struct.pathspec = type { i32, i8, i32, i32, ptr }
%struct.string_list = type { ptr, i64, i64, i8, ptr }
%struct.gz_header_s = type { i32, i64, i32, i32, ptr, i32, i32, ptr, i32, ptr, i32, i32, i32 }
%struct.child_process = type { %struct.strvec, %struct.strvec, i32, i32, i64, ptr, ptr, i32, i32, i32, ptr, i16, ptr }

@internal_gzip_command = internal constant [17 x i8] c"git archive gzip\00", align 16
@.str.11 = private unnamed_addr constant [14 x i8] c"archive-tar.c\00", align 1
@write_block = internal global ptr @tar_write_block, align 8
@__const.write_tar_filter_archive.cmd = private unnamed_addr constant %struct.strbuf { i64 0, i64 0, ptr @strbuf_slopbuf }, align 8
@.str.30 = private unnamed_addr constant [50 x i8] c"tar-filter archiver called with no filter defined\00", align 1
@gzstream = internal global %struct.git_zstream zeroinitializer, align 8
@.str.31 = private unnamed_addr constant [35 x i8] c"deflateSetHeader() called too late\00", align 1
@outbuf = internal global [16384 x i8] zeroinitializer, align 16
@.str.32 = private unnamed_addr constant [5 x i8] c" -%d\00", align 1
@.str.33 = private unnamed_addr constant [28 x i8] c"unable to start '%s' filter\00", align 1
@.str.34 = private unnamed_addr constant [30 x i8] c"unable to redirect descriptor\00", align 1
@.str.35 = private unnamed_addr constant [27 x i8] c"'%s' filter reported error\00", align 1
@.str.36 = private unnamed_addr constant [19 x i8] c"deflate error (%d)\00", align 1

; Function Attrs: inlinehint nounwind uwtable
define internal void @strbuf_addstr(ptr noundef %0, ptr noundef %1) #3 {
  %3 = alloca ptr, align 8
  %4 = alloca ptr, align 8
  store ptr %0, ptr %3, align 8, !tbaa !71
  store ptr %1, ptr %4, align 8, !tbaa !18
  %5 = load ptr, ptr %3, align 8, !tbaa !71
  %6 = load ptr, ptr %4, align 8, !tbaa !18
  %7 = load ptr, ptr %4, align 8, !tbaa !18
  %8 = call i64 @strlen(ptr noundef %7) #10
  call void @strbuf_add(ptr noundef %5, ptr noundef %6, i64 noundef %8)
  ret void
}

; Function Attrs: nounwind uwtable
define internal void @tgz_deflate(i32 noundef %0) #0 {
  %2 = alloca i32, align 4
  %3 = alloca i32, align 4
  %4 = alloca i32, align 4
  store i32 %0, ptr %2, align 4, !tbaa !4
  br label %5

5:                                                ; preds = %41, %1
  %6 = load i64, ptr getelementptr inbounds nuw (%struct.git_zstream, ptr @gzstream, i32 0, i32 1), align 8, !tbaa !95
  %7 = icmp ne i64 %6, 0
  br i1 %7, label %11, label %8

8:                                                ; preds = %5
  %9 = load i32, ptr %2, align 4, !tbaa !4
  %10 = icmp eq i32 %9, 4
  br label %11

11:                                               ; preds = %8, %5
  %12 = phi i1 [ true, %5 ], [ %10, %8 ]
  br i1 %12, label %13, label %42

13:                                               ; preds = %11
  call void @llvm.lifetime.start.p0(i64 4, ptr %3) #9
  %14 = load i32, ptr %2, align 4, !tbaa !4
  %15 = call i32 @git_deflate(ptr noundef @gzstream, i32 noundef %14)
  store i32 %15, ptr %3, align 4, !tbaa !4
  %16 = load i64, ptr getelementptr inbounds nuw (%struct.git_zstream, ptr @gzstream, i32 0, i32 2), align 8, !tbaa !89
  %17 = icmp ne i64 %16, 0
  br i1 %17, label %18, label %21

18:                                               ; preds = %13
  %19 = load i32, ptr %3, align 4, !tbaa !4
  %20 = icmp eq i32 %19, 1
  br i1 %20, label %21, label %29

21:                                               ; preds = %18, %13
  %22 = load ptr, ptr getelementptr inbounds nuw (%struct.git_zstream, ptr @gzstream, i32 0, i32 6), align 8, !tbaa !85
  %23 = ptrtoint ptr %22 to i64
  %24 = sub i64 %23, ptrtoint (ptr @outbuf to i64)
  call void @write_or_die(i32 noundef 1, ptr noundef @outbuf, i64 noundef %24)
  store ptr @outbuf, ptr getelementptr inbounds nuw (%struct.git_zstream, ptr @gzstream, i32 0, i32 6), align 8, !tbaa !85
  store i64 16384, ptr getelementptr inbounds nuw (%struct.git_zstream, ptr @gzstream, i32 0, i32 2), align 8, !tbaa !89
  %25 = load i32, ptr %3, align 4, !tbaa !4
  %26 = icmp eq i32 %25, 1
  br i1 %26, label %27, label %28

27:                                               ; preds = %21
  store i32 3, ptr %4, align 4
  br label %39

28:                                               ; preds = %21
  br label %29

29:                                               ; preds = %28, %18
  %30 = load i32, ptr %3, align 4, !tbaa !4
  %31 = icmp ne i32 %30, 0
  br i1 %31, label %32, label %38

32:                                               ; preds = %29
  %33 = load i32, ptr %3, align 4, !tbaa !4
  %34 = icmp ne i32 %33, -5
  br i1 %34, label %35, label %38

35:                                               ; preds = %32
  %36 = call ptr @_(ptr noundef @.str.36)
  %37 = load i32, ptr %3, align 4, !tbaa !4
  call void (ptr, ...) @die(ptr noundef %36, i32 noundef %37) #11
  unreachable

38:                                               ; preds = %32, %29
  store i32 0, ptr %4, align 4
  br label %39

39:                                               ; preds = %38, %27
  call void @llvm.lifetime.end.p0(i64 4, ptr %3) #9
  %40 = load i32, ptr %4, align 4
  switch i32 %40, label %43 [
    i32 0, label %41
    i32 3, label %42
  ]

41:                                               ; preds = %39
  br label %5, !llvm.loop !96

42:                                               ; preds = %39, %11
  ret void

43:                                               ; preds = %39
  unreachable
}

; Function Attrs: nounwind uwtable
define internal i32 @write_tar_filter_archive(ptr noundef %0, ptr noundef %1) #0 {
  %3 = alloca i32, align 4
  %4 = alloca ptr, align 8
  %5 = alloca ptr, align 8
  %6 = alloca %struct.gz_header_s, align 8
  %7 = alloca %struct.strbuf, align 8
  %8 = alloca %struct.child_process, align 8
  %9 = alloca i32, align 4
  %10 = alloca i32, align 4
  store ptr %0, ptr %4, align 8, !tbaa !11
  store ptr %1, ptr %5, align 8, !tbaa !32
  call void @llvm.lifetime.start.p0(i64 80, ptr %6) #9
  call void @llvm.memset.p0.i64(ptr align 8 %6, i8 0, i64 80, i1 false)
  %11 = getelementptr inbounds { i32, [4 x i8], i64, i32, i32, ptr, i32, i32, ptr, i32, [4 x i8], ptr, i32, i32, i32, [4 x i8] }, ptr %6, i32 0, i32 4
  store i32 3, ptr %11, align 4
  call void @llvm.lifetime.start.p0(i64 24, ptr %7) #9
  call void @llvm.memcpy.p0.p0.i64(ptr align 8 %7, ptr align 8 @__const.write_tar_filter_archive.cmd, i64 24, i1 false)
  call void @llvm.lifetime.start.p0(i64 120, ptr %8) #9
  call void @llvm.memcpy.p0.p0.i64(ptr align 8 %8, ptr align 8 @__const.write_tar_filter_archive.filter, i64 120, i1 false)
  call void @llvm.lifetime.start.p0(i64 4, ptr %9) #9
  %12 = load ptr, ptr %4, align 8, !tbaa !11
  %13 = getelementptr inbounds nuw %struct.archiver, ptr %12, i32 0, i32 3
  %14 = load ptr, ptr %13, align 8, !tbaa !13
  %15 = icmp ne ptr %14, null
  br i1 %15, label %17, label %16

16:                                               ; preds = %2
  call void (ptr, i32, ptr, ...) @BUG_fl(ptr noundef @.str.11, i32 noundef 484, ptr noundef @.str.30) #11
  unreachable

17:                                               ; preds = %2
  %18 = load ptr, ptr %4, align 8, !tbaa !11
  %19 = getelementptr inbounds nuw %struct.archiver, ptr %18, i32 0, i32 3
  %20 = load ptr, ptr %19, align 8, !tbaa !13
  %21 = call i32 @strcmp(ptr noundef %20, ptr noundef @internal_gzip_command) #10
  %22 = icmp ne i32 %21, 0
  br i1 %22, label %35, label %23

23:                                               ; preds = %17
  store ptr @tgz_write_block, ptr @write_block, align 8, !tbaa !19
  %24 = load ptr, ptr %5, align 8, !tbaa !32
  %25 = getelementptr inbounds nuw %struct.archiver_args, ptr %24, i32 0, i32 12
  %26 = load i32, ptr %25, align 4, !tbaa !84
  call void @git_deflate_init_gzip(ptr noundef @gzstream, i32 noundef %26)
  %27 = call i32 @deflateSetHeader(ptr noundef @gzstream, ptr noundef %6)
  %28 = icmp ne i32 %27, 0
  br i1 %28, label %29, label %30

29:                                               ; preds = %23
  call void (ptr, i32, ptr, ...) @BUG_fl(ptr noundef @.str.11, i32 noundef 491, ptr noundef @.str.31) #11
  unreachable

30:                                               ; preds = %23
  store ptr @outbuf, ptr getelementptr inbounds nuw (%struct.git_zstream, ptr @gzstream, i32 0, i32 6), align 8, !tbaa !85
  store i64 16384, ptr getelementptr inbounds nuw (%struct.git_zstream, ptr @gzstream, i32 0, i32 2), align 8, !tbaa !89
  %31 = load ptr, ptr %4, align 8, !tbaa !11
  %32 = load ptr, ptr %5, align 8, !tbaa !32
  %33 = call i32 @write_tar_archive(ptr noundef %31, ptr noundef %32)
  store i32 %33, ptr %9, align 4, !tbaa !4
  call void @tgz_deflate(i32 noundef 4)
  call void @git_deflate_end(ptr noundef @gzstream)
  %34 = load i32, ptr %9, align 4, !tbaa !4
  store i32 %34, ptr %3, align 4
  store i32 1, ptr %10, align 4
  br label %91

35:                                               ; preds = %17
  %36 = load ptr, ptr %4, align 8, !tbaa !11
  %37 = getelementptr inbounds nuw %struct.archiver, ptr %36, i32 0, i32 3
  %38 = load ptr, ptr %37, align 8, !tbaa !13
  call void @strbuf_addstr(ptr noundef %7, ptr noundef %38)
  %39 = load ptr, ptr %5, align 8, !tbaa !32
  %40 = getelementptr inbounds nuw %struct.archiver_args, ptr %39, i32 0, i32 12
  %41 = load i32, ptr %40, align 4, !tbaa !84
  %42 = icmp sge i32 %41, 0
  br i1 %42, label %43, label %47

43:                                               ; preds = %35
  %44 = load ptr, ptr %5, align 8, !tbaa !32
  %45 = getelementptr inbounds nuw %struct.archiver_args, ptr %44, i32 0, i32 12
  %46 = load i32, ptr %45, align 4, !tbaa !84
  call void (ptr, ptr, ...) @strbuf_addf(ptr noundef %7, ptr noundef @.str.32, i32 noundef %46)
  br label %47

47:                                               ; preds = %43, %35
  %48 = getelementptr inbounds nuw %struct.child_process, ptr %8, i32 0, i32 0
  %49 = getelementptr inbounds nuw %struct.strbuf, ptr %7, i32 0, i32 2
  %50 = load ptr, ptr %49, align 8, !tbaa !69
  %51 = call ptr @strvec_push(ptr noundef %48, ptr noundef %50)
  %52 = getelementptr inbounds nuw %struct.child_process, ptr %8, i32 0, i32 11
  %53 = load i16, ptr %52, align 8
  %54 = and i16 %53, -33
  %55 = or i16 %54, 32
  store i16 %55, ptr %52, align 8
  %56 = getelementptr inbounds nuw %struct.child_process, ptr %8, i32 0, i32 7
  store i32 -1, ptr %56, align 8, !tbaa !90
  %57 = getelementptr inbounds nuw %struct.child_process, ptr %8, i32 0, i32 11
  %58 = load i16, ptr %57, align 8
  %59 = and i16 %58, -17
  %60 = or i16 %59, 16
  store i16 %60, ptr %57, align 8
  %61 = call i32 @start_command(ptr noundef %8)
  %62 = icmp slt i32 %61, 0
  br i1 %62, label %63, label %67

63:                                               ; preds = %47
  %64 = call ptr @_(ptr noundef @.str.33)
  %65 = getelementptr inbounds nuw %struct.strbuf, ptr %7, i32 0, i32 2
  %66 = load ptr, ptr %65, align 8, !tbaa !69
  call void (ptr, ...) @die_errno(ptr noundef %64, ptr noundef %66) #11
  unreachable

67:                                               ; preds = %47
  %68 = call i32 @close(i32 noundef 1)
  %69 = getelementptr inbounds nuw %struct.child_process, ptr %8, i32 0, i32 7
  %70 = load i32, ptr %69, align 8, !tbaa !90
  %71 = call i32 @dup2(i32 noundef %70, i32 noundef 1) #9
  %72 = icmp slt i32 %71, 0
  br i1 %72, label %73, label %75

73:                                               ; preds = %67
  %74 = call ptr @_(ptr noundef @.str.34)
  call void (ptr, ...) @die_errno(ptr noundef %74) #11
  unreachable

75:                                               ; preds = %67
  %76 = getelementptr inbounds nuw %struct.child_process, ptr %8, i32 0, i32 7
  %77 = load i32, ptr %76, align 8, !tbaa !90
  %78 = call i32 @close(i32 noundef %77)
  %79 = load ptr, ptr %4, align 8, !tbaa !11
  %80 = load ptr, ptr %5, align 8, !tbaa !32
  %81 = call i32 @write_tar_archive(ptr noundef %79, ptr noundef %80)
  store i32 %81, ptr %9, align 4, !tbaa !4
  %82 = call i32 @close(i32 noundef 1)
  %83 = call i32 @finish_command(ptr noundef %8)
  %84 = icmp ne i32 %83, 0
  br i1 %84, label %85, label %89

85:                                               ; preds = %75
  %86 = call ptr @_(ptr noundef @.str.35)
  %87 = getelementptr inbounds nuw %struct.strbuf, ptr %7, i32 0, i32 2
  %88 = load ptr, ptr %87, align 8, !tbaa !69
  call void (ptr, ...) @die(ptr noundef %86, ptr noundef %88) #11
  unreachable

89:                                               ; preds = %75
  call void @strbuf_release(ptr noundef %7)
  %90 = load i32, ptr %9, align 4, !tbaa !4
  store i32 %90, ptr %3, align 4
  store i32 1, ptr %10, align 4
  br label %91

91:                                               ; preds = %89, %30
  call void @llvm.lifetime.end.p0(i64 4, ptr %9) #9
  call void @llvm.lifetime.end.p0(i64 120, ptr %8) #9
  call void @llvm.lifetime.end.p0(i64 24, ptr %7) #9
  call void @llvm.lifetime.end.p0(i64 80, ptr %6) #9
  %92 = load i32, ptr %3, align 4
  ret i32 %92
}