; Function Attrs: nounwind uwtable
define internal i32 @write_tar_filter_archive(ptr noundef readonly captures(none) %0, ptr noundef %1) #0 {
  %3 = alloca %struct.gz_header_s, align 8
  %4 = alloca %struct.strbuf, align 8
  %5 = alloca %struct.child_process, align 8
  call void @llvm.lifetime.start.p0(i64 80, ptr nonnull %3) #11
  call void @llvm.memset.p0.i64(ptr noundef nonnull align 8 dereferenceable(80) %3, i8 0, i64 80, i1 false)
  %6 = getelementptr inbounds nuw i8, ptr %3, i64 20
  store i32 3, ptr %6, align 4
  call void @llvm.lifetime.start.p0(i64 24, ptr nonnull %4) #11
  call void @llvm.memcpy.p0.p0.i64(ptr noundef nonnull align 8 dereferenceable(24) %4, ptr noundef nonnull align 8 dereferenceable(24) @__const.write_tar_filter_archive.cmd, i64 24, i1 false)
  call void @llvm.lifetime.start.p0(i64 120, ptr nonnull %5) #11
  call void @llvm.memcpy.p0.p0.i64(ptr noundef nonnull align 8 dereferenceable(120) %5, ptr noundef nonnull align 8 dereferenceable(120) @__const.write_tar_filter_archive.filter, i64 120, i1 false)
  %7 = getelementptr inbounds nuw i8, ptr %0, i64 24
  %8 = load ptr, ptr %7, align 8, !tbaa !15
  %.not = icmp eq ptr %8, null
  br i1 %.not, label %9, label %10

9:                                                ; preds = %2
  tail call void (ptr, i32, ptr, ...) @BUG_fl(ptr noundef nonnull @.str.11, i32 noundef 484, ptr noundef nonnull @.str.30) #12
  unreachable

10:                                               ; preds = %2
  %11 = tail call i32 @strcmp(ptr noundef nonnull dereferenceable(1) %8, ptr noundef nonnull dereferenceable(17) @internal_gzip_command) #13
  %.not14 = icmp eq i32 %11, 0
  br i1 %.not14, label %12, label %29

12:                                               ; preds = %10
  store ptr @tgz_write_block, ptr @write_block, align 8, !tbaa !64
  %13 = getelementptr inbounds nuw i8, ptr %1, i64 108
  %14 = load i32, ptr %13, align 4, !tbaa !74
  tail call void @git_deflate_init_gzip(ptr noundef nonnull @gzstream, i32 noundef %14) #11
  %15 = call i32 @deflateSetHeader(ptr noundef nonnull @gzstream, ptr noundef nonnull %3) #11
  %.not15 = icmp eq i32 %15, 0
  br i1 %.not15, label %17, label %16

16:                                               ; preds = %12
  call void (ptr, i32, ptr, ...) @BUG_fl(ptr noundef nonnull @.str.11, i32 noundef 491, ptr noundef nonnull @.str.31) #12
  unreachable

17:                                               ; preds = %12
  store ptr @outbuf, ptr getelementptr inbounds nuw (i8, ptr @gzstream, i64 152), align 8, !tbaa !75
  store i64 16384, ptr getelementptr inbounds nuw (i8, ptr @gzstream, i64 120), align 8, !tbaa !79
  %18 = call i32 @write_tar_archive(ptr nonnull poison, ptr noundef nonnull %1)
  br label %.lr.ph.split.us.i

.lr.ph.split.us.i:                                ; preds = %.lr.ph.split.us.i.backedge, %17
  %19 = call i32 @git_deflate(ptr noundef nonnull @gzstream, i32 noundef 4) #11
  %20 = load i64, ptr getelementptr inbounds nuw (i8, ptr @gzstream, i64 120), align 8, !tbaa !79
  %21 = icmp eq i64 %20, 0
  %22 = icmp eq i32 %19, 1
  %or.cond.us.i = select i1 %21, i1 true, i1 %22
  br i1 %or.cond.us.i, label %23, label %27

23:                                               ; preds = %.lr.ph.split.us.i
  %24 = load ptr, ptr getelementptr inbounds nuw (i8, ptr @gzstream, i64 152), align 8, !tbaa !75
  %25 = ptrtoint ptr %24 to i64
  %26 = sub i64 %25, ptrtoint (ptr @outbuf to i64)
  call void @write_or_die(i32 noundef 1, ptr noundef nonnull @outbuf, i64 noundef %26) #11
  store ptr @outbuf, ptr getelementptr inbounds nuw (i8, ptr @gzstream, i64 152), align 8, !tbaa !75
  store i64 16384, ptr getelementptr inbounds nuw (i8, ptr @gzstream, i64 120), align 8, !tbaa !79
  br i1 %22, label %tgz_deflate.exit, label %27

27:                                               ; preds = %23, %.lr.ph.split.us.i
  switch i32 %19, label %.split.us.i [
    i32 -5, label %.lr.ph.split.us.i.backedge
    i32 0, label %.lr.ph.split.us.i.backedge
  ]

.lr.ph.split.us.i.backedge:                       ; preds = %27, %27
  br label %.lr.ph.split.us.i

.split.us.i:                                      ; preds = %27
  %28 = call fastcc ptr @_(ptr noundef nonnull @.str.36)
  call void (ptr, ...) @die(ptr noundef %28, i32 noundef %19) #12
  unreachable

tgz_deflate.exit:                                 ; preds = %23
  call void @git_deflate_end(ptr noundef nonnull @gzstream) #11
  br label %65

29:                                               ; preds = %10
  %30 = tail call i64 @strlen(ptr noundef nonnull dereferenceable(1) %8) #13
  call void @strbuf_add(ptr noundef nonnull %4, ptr noundef nonnull %8, i64 noundef %30) #11
  %31 = getelementptr inbounds nuw i8, ptr %1, i64 108
  %32 = load i32, ptr %31, align 4, !tbaa !74
  %33 = icmp sgt i32 %32, -1
  br i1 %33, label %34, label %35

34:                                               ; preds = %29
  call void (ptr, ptr, ...) @strbuf_addf(ptr noundef nonnull %4, ptr noundef nonnull @.str.32, i32 noundef %32) #11
  br label %35

35:                                               ; preds = %34, %29
  %36 = getelementptr inbounds nuw i8, ptr %4, i64 16
  %37 = load ptr, ptr %36, align 8, !tbaa !66
  %38 = call ptr @strvec_push(ptr noundef nonnull %5, ptr noundef %37) #11
  %39 = getelementptr inbounds nuw i8, ptr %5, i64 104
  %40 = load i16, ptr %39, align 8
  %41 = getelementptr inbounds nuw i8, ptr %5, i64 80
  store i32 -1, ptr %41, align 8, !tbaa !80
  %42 = or i16 %40, 48
  store i16 %42, ptr %39, align 8
  %43 = call i32 @start_command(ptr noundef nonnull %5) #11
  %44 = icmp slt i32 %43, 0
  br i1 %44, label %45, label %48

45:                                               ; preds = %35
  %46 = call fastcc ptr @_(ptr noundef nonnull @.str.33)
  %47 = load ptr, ptr %36, align 8, !tbaa !66
  call void (ptr, ...) @die_errno(ptr noundef %46, ptr noundef %47) #12
  unreachable

48:                                               ; preds = %35
  %49 = call i32 @close(i32 noundef 1) #11
  %50 = load i32, ptr %41, align 8, !tbaa !80
  %51 = call i32 @dup2(i32 noundef %50, i32 noundef 1) #11
  %52 = icmp slt i32 %51, 0
  br i1 %52, label %53, label %55

53:                                               ; preds = %48
  %54 = call fastcc ptr @_(ptr noundef nonnull @.str.34)
  call void (ptr, ...) @die_errno(ptr noundef %54) #12
  unreachable

55:                                               ; preds = %48
  %56 = load i32, ptr %41, align 8, !tbaa !80
  %57 = call i32 @close(i32 noundef %56) #11
  %58 = call i32 @write_tar_archive(ptr nonnull poison, ptr noundef nonnull %1)
  %59 = call i32 @close(i32 noundef 1) #11
  %60 = call i32 @finish_command(ptr noundef nonnull %5) #11
  %.not16 = icmp eq i32 %60, 0
  br i1 %.not16, label %64, label %61

61:                                               ; preds = %55
  %62 = call fastcc ptr @_(ptr noundef nonnull @.str.35)
  %63 = load ptr, ptr %36, align 8, !tbaa !66
  call void (ptr, ...) @die(ptr noundef %62, ptr noundef %63) #12
  unreachable

64:                                               ; preds = %55
  call void @strbuf_release(ptr noundef nonnull %4) #11
  br label %65

65:                                               ; preds = %64, %tgz_deflate.exit
  %.0 = phi i32 [ %58, %64 ], [ %18, %tgz_deflate.exit ]
  call void @llvm.lifetime.end.p0(i64 120, ptr nonnull %5) #11
  call void @llvm.lifetime.end.p0(i64 24, ptr nonnull %4) #11
  call void @llvm.lifetime.end.p0(i64 80, ptr nonnull %3) #11
  ret i32 %.0
}